; Function Attrs: mustprogress uwtable
define void @_ZNK3nix17ExternalValueBase15printValueAsXMLERNS_9EvalStateEbbRNS_9XMLWriterERSt3setINS_20NixStringContextElemESt4lessIS6_ESaIS6_EERS5_INSt7__cxx1112basic_stringIcSt11char_traitsIcESaIcEEES7_ISH_ESaISH_EENS_6PosIdxE(ptr nocapture noundef nonnull readnone align 8 dereferenceable(8) %0, ptr nocapture noundef nonnull readnone align 8 dereferenceable(1248) %1, i1 noundef zeroext %2, i1 noundef zeroext %3, ptr noundef nonnull align 8 dereferenceable(40) %4, ptr nocapture noundef nonnull readnone align 8 dereferenceable(48) %5, ptr nocapture noundef nonnull readnone align 8 dereferenceable(48) %6, i32 %7) unnamed_addr #4 align 2 personality ptr @__gxx_personality_v0 {
  %9 = alloca %"class.std::map", align 8
  %10 = getelementptr inbounds i8, ptr %9, i64 8
  %11 = getelementptr inbounds i8, ptr %9, i64 24
  call void @llvm.memset.p0.i64(ptr noundef nonnull align 8 dereferenceable(24) %9, i8 0, i64 24, i1 false)
  store ptr %10, ptr %11, align 8
  %12 = getelementptr inbounds i8, ptr %9, i64 32
  store ptr %10, ptr %12, align 8
  %13 = getelementptr inbounds i8, ptr %9, i64 40
  store i64 0, ptr %13, align 8
  invoke void @_ZN3nix9XMLWriter17writeEmptyElementESt17basic_string_viewIcSt11char_traitsIcEERKSt3mapINSt7__cxx1112basic_stringIcS3_SaIcEEES9_St4lessIS9_ESaISt4pairIKS9_S9_EEE(ptr noundef nonnull align 8 dereferenceable(40) %4, i64 11, ptr nonnull @.str, ptr noundef nonnull align 8 dereferenceable(48) %9)
          to label %14 unwind label %20

14:                                               ; preds = %8
  %15 = getelementptr inbounds i8, ptr %9, i64 16
  %16 = load ptr, ptr %15, align 8
  invoke void @_ZNSt8_Rb_treeINSt7__cxx1112basic_stringIcSt11char_traitsIcESaIcEEESt4pairIKS5_S5_ESt10_Select1stIS8_ESt4lessIS5_ESaIS8_EE8_M_eraseEPSt13_Rb_tree_nodeIS8_E(ptr noundef nonnull align 8 dereferenceable(48) %9, ptr noundef %16)
          to label %_ZNSt3mapINSt7__cxx1112basic_stringIcSt11char_traitsIcESaIcEEES5_St4lessIS5_ESaISt4pairIKS5_S5_EEED2Ev.exit unwind label %17

17:                                               ; preds = %14
  %18 = landingpad { ptr, i32 }
          catch ptr null
  %19 = extractvalue { ptr, i32 } %18, 0
  call void @__clang_call_terminate(ptr %19) #27
  unreachable

_ZNSt3mapINSt7__cxx1112basic_stringIcSt11char_traitsIcESaIcEEES5_St4lessIS5_ESaISt4pairIKS5_S5_EEED2Ev.exit: ; preds = %14
  ret void

20:                                               ; preds = %8
  %21 = landingpad { ptr, i32 }
          cleanup
  call void @_ZNSt3mapINSt7__cxx1112basic_stringIcSt11char_traitsIcESaIcEEES5_St4lessIS5_ESaISt4pairIKS5_S5_EEED2Ev(ptr noundef nonnull align 8 dereferenceable(48) %9) #26
  resume { ptr, i32 } %21
}